target datalayout = "e-m:e-p270:32:32-p271:32:32-p272:64:64-i64:64-i128:128-f80:128-n8:16:32:64-S128"
target triple = "x86_64-pc-linux-gnu"

%struct.FastPathStrongRelationLockData = type { i8, [1024 x i32] }
%struct.LOCKTAG = type { i32, i32, i32, i16, i8, i8 }
%struct.LOCALLOCKTAG = type { %struct.LOCKTAG, i32 }
%struct.LOCALLOCK = type { %struct.LOCALLOCKTAG, i32, ptr, ptr, i64, i32, i32, ptr, i8, i8 }
%struct.LOCALLOCKOWNER = type { ptr, i64 }

@FastPathStrongRelationLocks = internal global ptr null, align 8
@LockMethodLocalHash = internal global ptr null, align 8
@.str.5 = private unnamed_addr constant [7 x i8] c"lock.c\00", align 1
@.str.17 = private unnamed_addr constant [26 x i8] c"locallock table corrupted\00", align 1
@__func__.RemoveLocalLock = private unnamed_addr constant [16 x i8] c"RemoveLocalLock\00", align 1

; Function Attrs: inlinehint nounwind uwtable
define internal void @CheckAndSetLockHeld(ptr noundef %0, i1 noundef zeroext %1) #6 {
  %3 = alloca ptr, align 8
  %4 = alloca i8, align 1
  store ptr %0, ptr %3, align 8
  %5 = zext i1 %1 to i8
  store i8 %5, ptr %4, align 1
  ret void
}

; Function Attrs: inlinehint nounwind uwtable
define internal i32 @tas(ptr noundef %0) #6 {
  %2 = alloca ptr, align 8
  %3 = alloca i8, align 1
  store ptr %0, ptr %2, align 8
  call void @llvm.lifetime.start.p0(i64 1, ptr %3) #9
  store i8 1, ptr %3, align 1
  %4 = load i8, ptr %3, align 1
  %5 = load ptr, ptr %2, align 8
  %6 = call i8 asm sideeffect "\09lock\09\09\09\0A\09xchgb\09$0,$1\09\0A", "=q,=*m,0,*m,~{memory},~{cc},~{dirflag},~{fpsr},~{flags}"(ptr elementtype(i8) %5, i8 %4, ptr elementtype(i8) %5) #9, !srcloc !26
  store i8 %6, ptr %3, align 1
  %7 = load i8, ptr %3, align 1
  %8 = zext i8 %7 to i32
  call void @llvm.lifetime.end.p0(i64 1, ptr %3) #9
  ret i32 %8
}

; Function Attrs: nounwind uwtable
define internal void @RemoveLocalLock(ptr noundef %0) #0 {
  %2 = alloca ptr, align 8
  %3 = alloca i32, align 4
  %4 = alloca i32, align 4
  store ptr %0, ptr %2, align 8
  call void @llvm.lifetime.start.p0(i64 4, ptr %3) #9
  %5 = load ptr, ptr %2, align 8
  %6 = getelementptr inbounds nuw %struct.LOCALLOCK, ptr %5, i32 0, i32 5
  %7 = load i32, ptr %6, align 8
  %8 = sub i32 %7, 1
  store i32 %8, ptr %3, align 4
  br label %9

9:                                                ; preds = %33, %1
  %10 = load i32, ptr %3, align 4
  %11 = icmp sge i32 %10, 0
  br i1 %11, label %12, label %36

12:                                               ; preds = %9
  %13 = load ptr, ptr %2, align 8
  %14 = getelementptr inbounds nuw %struct.LOCALLOCK, ptr %13, i32 0, i32 7
  %15 = load ptr, ptr %14, align 8
  %16 = load i32, ptr %3, align 4
  %17 = sext i32 %16 to i64
  %18 = getelementptr inbounds %struct.LOCALLOCKOWNER, ptr %15, i64 %17
  %19 = getelementptr inbounds nuw %struct.LOCALLOCKOWNER, ptr %18, i32 0, i32 0
  %20 = load ptr, ptr %19, align 8
  %21 = icmp ne ptr %20, null
  br i1 %21, label %22, label %32

22:                                               ; preds = %12
  %23 = load ptr, ptr %2, align 8
  %24 = getelementptr inbounds nuw %struct.LOCALLOCK, ptr %23, i32 0, i32 7
  %25 = load ptr, ptr %24, align 8
  %26 = load i32, ptr %3, align 4
  %27 = sext i32 %26 to i64
  %28 = getelementptr inbounds %struct.LOCALLOCKOWNER, ptr %25, i64 %27
  %29 = getelementptr inbounds nuw %struct.LOCALLOCKOWNER, ptr %28, i32 0, i32 0
  %30 = load ptr, ptr %29, align 8
  %31 = load ptr, ptr %2, align 8
  call void @ResourceOwnerForgetLock(ptr noundef %30, ptr noundef %31)
  br label %32

32:                                               ; preds = %22, %12
  br label %33

33:                                               ; preds = %32
  %34 = load i32, ptr %3, align 4
  %35 = add i32 %34, -1
  store i32 %35, ptr %3, align 4
  br label %9, !llvm.loop !11

36:                                               ; preds = %9
  %37 = load ptr, ptr %2, align 8
  %38 = getelementptr inbounds nuw %struct.LOCALLOCK, ptr %37, i32 0, i32 5
  store i32 0, ptr %38, align 8
  %39 = load ptr, ptr %2, align 8
  %40 = getelementptr inbounds nuw %struct.LOCALLOCK, ptr %39, i32 0, i32 7
  %41 = load ptr, ptr %40, align 8
  %42 = icmp ne ptr %41, null
  br i1 %42, label %43, label %47

43:                                               ; preds = %36
  %44 = load ptr, ptr %2, align 8
  %45 = getelementptr inbounds nuw %struct.LOCALLOCK, ptr %44, i32 0, i32 7
  %46 = load ptr, ptr %45, align 8
  call void @pfree(ptr noundef %46)
  br label %47

47:                                               ; preds = %43, %36
  %48 = load ptr, ptr %2, align 8
  %49 = getelementptr inbounds nuw %struct.LOCALLOCK, ptr %48, i32 0, i32 7
  store ptr null, ptr %49, align 8
  %50 = load ptr, ptr %2, align 8
  %51 = getelementptr inbounds nuw %struct.LOCALLOCK, ptr %50, i32 0, i32 8
  %52 = load i8, ptr %51, align 8, !range !4, !noundef !5
  %53 = trunc i8 %52 to i1
  br i1 %53, label %54, label %83

54:                                               ; preds = %47
  call void @llvm.lifetime.start.p0(i64 4, ptr %4) #9
  %55 = load ptr, ptr %2, align 8
  %56 = getelementptr inbounds nuw %struct.LOCALLOCK, ptr %55, i32 0, i32 1
  %57 = load i32, ptr %56, align 4
  %58 = urem i32 %57, 1024
  store i32 %58, ptr %4, align 4
  %59 = load ptr, ptr @FastPathStrongRelationLocks, align 8
  %60 = getelementptr inbounds nuw %struct.FastPathStrongRelationLockData, ptr %59, i32 0, i32 0
  %61 = call i32 @tas(ptr noundef %60)
  %62 = icmp ne i32 %61, 0
  br i1 %62, label %63, label %67

63:                                               ; preds = %54
  %64 = load ptr, ptr @FastPathStrongRelationLocks, align 8
  %65 = getelementptr inbounds nuw %struct.FastPathStrongRelationLockData, ptr %64, i32 0, i32 0
  %66 = call i32 @s_lock(ptr noundef %65, ptr noundef @.str.5, i32 noundef 1445, ptr noundef @__func__.RemoveLocalLock)
  br label %68

67:                                               ; preds = %54
  br label %68

68:                                               ; preds = %67, %63
  %69 = load ptr, ptr @FastPathStrongRelationLocks, align 8
  %70 = getelementptr inbounds nuw %struct.FastPathStrongRelationLockData, ptr %69, i32 0, i32 1
  %71 = load i32, ptr %4, align 4
  %72 = zext i32 %71 to i64
  %73 = getelementptr inbounds nuw [1024 x i32], ptr %70, i64 0, i64 %72
  %74 = load volatile i32, ptr %73, align 4
  %75 = add i32 %74, -1
  store volatile i32 %75, ptr %73, align 4
  %76 = load ptr, ptr %2, align 8
  %77 = getelementptr inbounds nuw %struct.LOCALLOCK, ptr %76, i32 0, i32 8
  store i8 0, ptr %77, align 8
  br label %78

78:                                               ; preds = %68
  call void asm sideeffect "", "~{memory},~{dirflag},~{fpsr},~{flags}"() #9, !srcloc !12
  %79 = load ptr, ptr @FastPathStrongRelationLocks, align 8
  %80 = getelementptr inbounds nuw %struct.FastPathStrongRelationLockData, ptr %79, i32 0, i32 0
  store volatile i8 0, ptr %80, align 4
  br label %81

81:                                               ; preds = %78
  br label %82

82:                                               ; preds = %81
  call void @llvm.lifetime.end.p0(i64 4, ptr %4) #9
  br label %83

83:                                               ; preds = %82, %47
  %84 = load ptr, ptr @LockMethodLocalHash, align 8
  %85 = load ptr, ptr %2, align 8
  %86 = getelementptr inbounds nuw %struct.LOCALLOCK, ptr %85, i32 0, i32 0
  %87 = call ptr @hash_search(ptr noundef %84, ptr noundef %86, i32 noundef 2, ptr noundef null)
  %88 = icmp ne ptr %87, null
  br i1 %88, label %100, label %89

89:                                               ; preds = %83
  br label %90

90:                                               ; preds = %89
  br i1 false, label %91, label %93

91:                                               ; preds = %90
  %92 = call zeroext i1 @errstart_cold(i32 noundef 19, ptr noundef null) #10
  br i1 %92, label %95, label %97

93:                                               ; preds = %90
  %94 = call zeroext i1 @errstart(i32 noundef 19, ptr noundef null)
  br i1 %94, label %95, label %97

95:                                               ; preds = %93, %91
  %96 = call i32 (ptr, ...) @errmsg_internal(ptr noundef @.str.17)
  call void @errfinish(ptr noundef @.str.5, i32 noundef 1455, ptr noundef @__func__.RemoveLocalLock)
  br label %97

97:                                               ; preds = %95, %93, %91
  br label %98

98:                                               ; preds = %97
  br label %99

99:                                               ; preds = %98
  br label %100

100:                                              ; preds = %99, %83
  %101 = load ptr, ptr %2, align 8
  call void @CheckAndSetLockHeld(ptr noundef %101, i1 noundef zeroext false)
  call void @llvm.lifetime.end.p0(i64 4, ptr %3) #9
  ret void
}