; Function Attrs: nounwind uwtable
define internal fastcc void @RemoveLocalLock(ptr noundef %0) unnamed_addr #0 {
  %2 = getelementptr inbounds nuw i8, ptr %0, i64 48
  %3 = load i32, ptr %2, align 8
  %.022 = add i32 %3, -1
  %4 = icmp sgt i32 %.022, -1
  br i1 %4, label %.lr.ph, label %._crit_edge

.lr.ph:                                           ; preds = %1
  %5 = getelementptr inbounds nuw i8, ptr %0, i64 56
  %6 = zext nneg i32 %.022 to i64
  br label %7

7:                                                ; preds = %.lr.ph, %12
  %indvars.iv = phi i64 [ %6, %.lr.ph ], [ %indvars.iv.next, %12 ]
  %8 = load ptr, ptr %5, align 8
  %9 = getelementptr inbounds nuw %struct.LOCALLOCKOWNER, ptr %8, i64 %indvars.iv
  %10 = load ptr, ptr %9, align 8
  %.not21 = icmp eq ptr %10, null
  br i1 %.not21, label %12, label %11

11:                                               ; preds = %7
  tail call void @ResourceOwnerForgetLock(ptr noundef nonnull %10, ptr noundef nonnull %0) #17
  br label %12

12:                                               ; preds = %7, %11
  %indvars.iv.next = add nsw i64 %indvars.iv, -1
  %13 = icmp sgt i64 %indvars.iv, 0
  br i1 %13, label %7, label %._crit_edge, !llvm.loop !9

._crit_edge:                                      ; preds = %12, %1
  store i32 0, ptr %2, align 8
  %14 = getelementptr inbounds nuw i8, ptr %0, i64 56
  %15 = load ptr, ptr %14, align 8
  %.not = icmp eq ptr %15, null
  br i1 %.not, label %17, label %16

16:                                               ; preds = %._crit_edge
  tail call void @pfree(ptr noundef nonnull %15) #17
  br label %17

17:                                               ; preds = %16, %._crit_edge
  store ptr null, ptr %14, align 8
  %18 = getelementptr inbounds nuw i8, ptr %0, i64 64
  %19 = load i8, ptr %18, align 8, !range !4, !noundef !5
  %20 = trunc nuw i8 %19 to i1
  br i1 %20, label %21, label %38

21:                                               ; preds = %17
  %22 = getelementptr inbounds nuw i8, ptr %0, i64 20
  %23 = load i32, ptr %22, align 4
  %24 = and i32 %23, 1023
  %25 = load ptr, ptr @FastPathStrongRelationLocks, align 8
  %26 = tail call i8 asm sideeffect "\09lock\09\09\09\0A\09xchgb\09$0,$1\09\0A", "=q,=*m,0,*m,~{memory},~{cc},~{dirflag},~{fpsr},~{flags}"(ptr elementtype(i8) %25, i8 1, ptr elementtype(i8) %25) #17, !srcloc !10
  %.not19 = icmp eq i8 %26, 0
  br i1 %.not19, label %30, label %27

27:                                               ; preds = %21
  %28 = load ptr, ptr @FastPathStrongRelationLocks, align 8
  %29 = tail call i32 @s_lock(ptr noundef %28, ptr noundef nonnull @.str.5, i32 noundef 1445, ptr noundef nonnull @__func__.RemoveLocalLock) #17
  br label %30

30:                                               ; preds = %21, %27
  %31 = load ptr, ptr @FastPathStrongRelationLocks, align 8
  %32 = getelementptr inbounds nuw i8, ptr %31, i64 4
  %33 = zext nneg i32 %24 to i64
  %34 = getelementptr inbounds nuw [1024 x i32], ptr %32, i64 0, i64 %33
  %35 = load volatile i32, ptr %34, align 4
  %36 = add i32 %35, -1
  store volatile i32 %36, ptr %34, align 4
  store i8 0, ptr %18, align 8
  tail call void asm sideeffect "", "~{memory},~{dirflag},~{fpsr},~{flags}"() #17, !srcloc !11
  %37 = load ptr, ptr @FastPathStrongRelationLocks, align 8
  store volatile i8 0, ptr %37, align 4
  br label %38

38:                                               ; preds = %30, %17
  %39 = load ptr, ptr @LockMethodLocalHash, align 8
  %40 = tail call ptr @hash_search(ptr noundef %39, ptr noundef nonnull %0, i32 noundef 2, ptr noundef null) #17
  %.not20 = icmp eq ptr %40, null
  br i1 %.not20, label %41, label %45

41:                                               ; preds = %38
  %42 = tail call zeroext i1 @errstart(i32 noundef 19, ptr noundef null) #17
  br i1 %42, label %43, label %45

43:                                               ; preds = %41
  %44 = tail call i32 (ptr, ...) @errmsg_internal(ptr noundef nonnull @.str.17) #17
  tail call void @errfinish(ptr noundef nonnull @.str.5, i32 noundef 1455, ptr noundef nonnull @__func__.RemoveLocalLock) #17
  br label %45

45:                                               ; preds = %41, %43, %38
  ret void
}